; Function Attrs: mustprogress nounwind uwtable
define dso_local range(i32 0, 2) i32 @stbtt_PackFontRange(ptr noundef captures(none) %0, ptr noundef %1, i32 noundef %2, float noundef %3, i32 noundef %4, i32 noundef %5, ptr noundef %6) local_unnamed_addr #3 {
  %8 = alloca %struct.stbtt_pack_range, align 8
  %9 = getelementptr inbounds nuw i8, ptr %8, i64 4
  store i32 %4, ptr %9, align 4
  %10 = getelementptr inbounds nuw i8, ptr %8, i64 8
  store ptr null, ptr %10, align 8
  %11 = getelementptr inbounds nuw i8, ptr %8, i64 16
  store i32 %5, ptr %11, align 8
  %12 = getelementptr inbounds nuw i8, ptr %8, i64 24
  store ptr %6, ptr %12, align 8
  store float %3, ptr %8, align 8
  %13 = call i32 @stbtt_PackFontRanges(ptr noundef %0, ptr noundef %1, i32 noundef %2, ptr noundef nonnull %8, i32 noundef 1)
  ret i32 %13
}